; Function Attrs: mustprogress nofree nounwind willreturn memory(readwrite, inaccessiblemem: write) uwtable
define internal { double, double } @_ZL12ccon_forward5PJ_LPP8PJconsts(double %0, double %1, ptr noundef readonly captures(none) %2) #5 {
  %4 = getelementptr inbounds nuw i8, ptr %2, i64 88
  %5 = load ptr, ptr %4, align 8, !tbaa !40
  %6 = getelementptr inbounds nuw i8, ptr %5, i64 8
  %7 = load double, ptr %6, align 8, !tbaa !52
  %8 = load double, ptr %5, align 8, !tbaa !44
  %9 = fsub double %1, %8
  %10 = tail call double @tan(double noundef %9) #8, !tbaa !49
  %11 = fsub double %7, %10
  %12 = getelementptr inbounds nuw i8, ptr %5, i64 16
  %13 = load double, ptr %12, align 8, !tbaa !50
  %14 = fmul double %0, %13
  %15 = tail call double @sin(double noundef %14) #8, !tbaa !49
  %16 = fmul double %11, %15
  %17 = tail call double @cos(double noundef %14) #8, !tbaa !49
  %18 = fneg double %11
  %19 = tail call double @llvm.fmuladd.f64(double %18, double %17, double %7)
  %.fca.0.insert = insertvalue { double, double } poison, double %16, 0
  %.fca.1.insert = insertvalue { double, double } %.fca.0.insert, double %19, 1
  ret { double, double } %.fca.1.insert
}